; ModuleID = '16/914.c'
source_filename = "16/914.c"
target datalayout = "e-m:e-p270:32:32-p271:32:32-p272:64:64-i64:64-f80:128-n8:16:32:64-S128"
target triple = "x86_64-pc-linux-gnu"

@.str = private unnamed_addr constant [3 x i8] c"%d\00", align 1
@.str.1 = private unnamed_addr constant [2 x i8] c"0\00", align 1
@.str.2 = private unnamed_addr constant [6 x i8] c"000%d\00", align 1
@.str.3 = private unnamed_addr constant [5 x i8] c"00%d\00", align 1
@.str.4 = private unnamed_addr constant [4 x i8] c"0%d\00", align 1

; Function Attrs: noinline nounwind uwtable
define dso_local void @main() #0 {
  %1 = alloca i32, align 4
  %2 = alloca i32, align 4
  %3 = alloca i32, align 4
  %4 = alloca i32, align 4
  %5 = alloca i32, align 4
  %6 = alloca i32, align 4
  %7 = call i32 (i8*, ...) @__isoc99_scanf(i8* getelementptr inbounds ([3 x i8], [3 x i8]* @.str, i64 0, i64 0), i32* %5)
  %8 = load i32, i32* %5, align 4
  %9 = sdiv i32 %8, 1000
  store i32 %9, i32* %1, align 4
  %10 = load i32, i32* %5, align 4
  %11 = load i32, i32* %1, align 4
  %12 = mul nsw i32 %11, 1000
  %13 = sub nsw i32 %10, %12
  %14 = sdiv i32 %13, 100
  store i32 %14, i32* %2, align 4
  %15 = load i32, i32* %5, align 4
  %16 = load i32, i32* %1, align 4
  %17 = mul nsw i32 %16, 1000
  %18 = sub nsw i32 %15, %17
  %19 = load i32, i32* %2, align 4
  %20 = mul nsw i32 %19, 100
  %21 = sub nsw i32 %18, %20
  %22 = sdiv i32 %21, 10
  store i32 %22, i32* %3, align 4
  %23 = load i32, i32* %5, align 4
  %24 = load i32, i32* %1, align 4
  %25 = mul nsw i32 %24, 1000
  %26 = sub nsw i32 %23, %25
  %27 = load i32, i32* %2, align 4
  %28 = mul nsw i32 %27, 100
  %29 = sub nsw i32 %26, %28
  %30 = load i32, i32* %3, align 4
  %31 = mul nsw i32 %30, 10
  %32 = sub nsw i32 %29, %31
  store i32 %32, i32* %4, align 4
  %33 = load i32, i32* %1, align 4
  %34 = icmp eq i32 %33, 0
  br i1 %34, label %35, label %58

35:                                               ; preds = %0
  %36 = load i32, i32* %2, align 4
  %37 = icmp eq i32 %36, 0
  br i1 %37, label %38, label %49

38:                                               ; preds = %35
  %39 = load i32, i32* %3, align 4
  %40 = icmp eq i32 %39, 0
  br i1 %40, label %41, label %43

41:                                               ; preds = %38
  %42 = load i32, i32* %4, align 4
  store i32 %42, i32* %6, align 4
  br label %48

43:                                               ; preds = %38
  %44 = load i32, i32* %4, align 4
  %45 = mul nsw i32 %44, 10
  %46 = load i32, i32* %3, align 4
  %47 = add nsw i32 %45, %46
  store i32 %47, i32* %6, align 4
  br label %48

48:                                               ; preds = %43, %41
  br label %57

49:                                               ; preds = %35
  %50 = load i32, i32* %4, align 4
  %51 = mul nsw i32 %50, 100
  %52 = load i32, i32* %3, align 4
  %53 = mul nsw i32 %52, 10
  %54 = add nsw i32 %51, %53
  %55 = load i32, i32* %2, align 4
  %56 = add nsw i32 %54, %55
  store i32 %56, i32* %6, align 4
  br label %57

57:                                               ; preds = %49, %48
  br label %69

58:                                               ; preds = %0
  %59 = load i32, i32* %4, align 4
  %60 = mul nsw i32 %59, 1000
  %61 = load i32, i32* %3, align 4
  %62 = mul nsw i32 %61, 100
  %63 = add nsw i32 %60, %62
  %64 = load i32, i32* %2, align 4
  %65 = mul nsw i32 %64, 10
  %66 = add nsw i32 %63, %65
  %67 = load i32, i32* %1, align 4
  %68 = add nsw i32 %66, %67
  store i32 %68, i32* %6, align 4
  br label %69

69:                                               ; preds = %58, %57
  %70 = load i32, i32* %4, align 4
  %71 = icmp eq i32 %70, 0
  br i1 %71, label %72, label %95

72:                                               ; preds = %69
  %73 = load i32, i32* %3, align 4
  %74 = icmp eq i32 %73, 0
  br i1 %74, label %75, label %91

75:                                               ; preds = %72
  %76 = load i32, i32* %2, align 4
  %77 = icmp eq i32 %76, 0
  br i1 %77, label %78, label %87

78:                                               ; preds = %75
  %79 = load i32, i32* %1, align 4
  %80 = icmp eq i32 %79, 0
  br i1 %80, label %81, label %83

81:                                               ; preds = %78
  %82 = call i32 (i8*, ...) @printf(i8* getelementptr inbounds ([2 x i8], [2 x i8]* @.str.1, i64 0, i64 0))
  br label %86

83:                                               ; preds = %78
  %84 = load i32, i32* %6, align 4
  %85 = call i32 (i8*, ...) @printf(i8* getelementptr inbounds ([6 x i8], [6 x i8]* @.str.2, i64 0, i64 0), i32 %84)
  br label %86

86:                                               ; preds = %83, %81
  br label %90

87:                                               ; preds = %75
  %88 = load i32, i32* %6, align 4
  %89 = call i32 (i8*, ...) @printf(i8* getelementptr inbounds ([5 x i8], [5 x i8]* @.str.3, i64 0, i64 0), i32 %88)
  br label %90

90:                                               ; preds = %87, %86
  br label %94

91:                                               ; preds = %72
  %92 = load i32, i32* %6, align 4
  %93 = call i32 (i8*, ...) @printf(i8* getelementptr inbounds ([4 x i8], [4 x i8]* @.str.4, i64 0, i64 0), i32 %92)
  br label %94

94:                                               ; preds = %91, %90
  br label %98

95:                                               ; preds = %69
  %96 = load i32, i32* %6, align 4
  %97 = call i32 (i8*, ...) @printf(i8* getelementptr inbounds ([3 x i8], [3 x i8]* @.str, i64 0, i64 0), i32 %96)
  br label %98

98:                                               ; preds = %95, %94
  ret void
}

declare dso_local i32 @__isoc99_scanf(i8*, ...) #1

declare dso_local i32 @printf(i8*, ...) #1


!llvm.module.flags = !{!0}
!llvm.ident = !{!1}

!0 = !{i32 1, !"wchar_size", i32 4}
!1 = !{!"clang version 10.0.0-4ubuntu1 "}
